target datalayout = "e-m:e-p270:32:32-p271:32:32-p272:64:64-i64:64-i128:128-f80:128-n8:16:32:64-S128"
target triple = "x86_64-pc-linux-gnu"

%struct.DbInfo = type { i32, ptr, [1024 x i8], %struct.RelInfoArr, %struct.LogicalSlotInfoArr }
%struct.RelInfoArr = type { ptr, i32 }
%struct.LogicalSlotInfoArr = type { i32, ptr }
%struct.RelInfo = type { ptr, ptr, i32, i32, i32, i32, ptr, i8, i8 }

@.str.32 = private unnamed_addr constant [12 x i8] c"spclocation\00", align 1
@.str.37 = private unnamed_addr constant [7 x i8] c"reloid\00", align 1
@.str.38 = private unnamed_addr constant [9 x i8] c"indtable\00", align 1
@.str.39 = private unnamed_addr constant [10 x i8] c"toastheap\00", align 1
@.str.40 = private unnamed_addr constant [8 x i8] c"nspname\00", align 1
@.str.41 = private unnamed_addr constant [8 x i8] c"relname\00", align 1
@.str.42 = private unnamed_addr constant [12 x i8] c"relfilenode\00", align 1
@.str.43 = private unnamed_addr constant [14 x i8] c"reltablespace\00", align 1

; Function Attrs: nounwind uwtable
define internal void @process_rel_infos(ptr noundef %0, ptr noundef %1, ptr noundef %2) #0 {
  %4 = alloca ptr, align 8
  %5 = alloca ptr, align 8
  %6 = alloca ptr, align 8
  %7 = alloca i32, align 4
  %8 = alloca ptr, align 8
  %9 = alloca i32, align 4
  %10 = alloca i32, align 4
  %11 = alloca i32, align 4
  %12 = alloca i32, align 4
  %13 = alloca i32, align 4
  %14 = alloca i32, align 4
  %15 = alloca i32, align 4
  %16 = alloca i32, align 4
  %17 = alloca i32, align 4
  %18 = alloca ptr, align 8
  %19 = alloca ptr, align 8
  %20 = alloca ptr, align 8
  %21 = alloca ptr, align 8
  %22 = alloca ptr, align 8
  %23 = alloca i32, align 4
  %24 = alloca ptr, align 8
  store ptr %0, ptr %4, align 8
  store ptr %1, ptr %5, align 8
  store ptr %2, ptr %6, align 8
  call void @llvm.lifetime.start.p0(i64 4, ptr %7) #7
  %25 = load ptr, ptr %5, align 8
  %26 = call i32 @PQntuples(ptr noundef %25)
  store i32 %26, ptr %7, align 4
  call void @llvm.lifetime.start.p0(i64 8, ptr %8) #7
  %27 = load i32, ptr %7, align 4
  %28 = sext i32 %27 to i64
  %29 = mul i64 48, %28
  %30 = call ptr @pg_malloc(i64 noundef %29)
  store ptr %30, ptr %8, align 8
  call void @llvm.lifetime.start.p0(i64 4, ptr %9) #7
  %31 = load ptr, ptr %5, align 8
  %32 = call i32 @PQfnumber(ptr noundef %31, ptr noundef @.str.37)
  store i32 %32, ptr %9, align 4
  call void @llvm.lifetime.start.p0(i64 4, ptr %10) #7
  %33 = load ptr, ptr %5, align 8
  %34 = call i32 @PQfnumber(ptr noundef %33, ptr noundef @.str.38)
  store i32 %34, ptr %10, align 4
  call void @llvm.lifetime.start.p0(i64 4, ptr %11) #7
  %35 = load ptr, ptr %5, align 8
  %36 = call i32 @PQfnumber(ptr noundef %35, ptr noundef @.str.39)
  store i32 %36, ptr %11, align 4
  call void @llvm.lifetime.start.p0(i64 4, ptr %12) #7
  %37 = load ptr, ptr %5, align 8
  %38 = call i32 @PQfnumber(ptr noundef %37, ptr noundef @.str.40)
  store i32 %38, ptr %12, align 4
  call void @llvm.lifetime.start.p0(i64 4, ptr %13) #7
  %39 = load ptr, ptr %5, align 8
  %40 = call i32 @PQfnumber(ptr noundef %39, ptr noundef @.str.41)
  store i32 %40, ptr %13, align 4
  call void @llvm.lifetime.start.p0(i64 4, ptr %14) #7
  %41 = load ptr, ptr %5, align 8
  %42 = call i32 @PQfnumber(ptr noundef %41, ptr noundef @.str.42)
  store i32 %42, ptr %14, align 4
  call void @llvm.lifetime.start.p0(i64 4, ptr %15) #7
  %43 = load ptr, ptr %5, align 8
  %44 = call i32 @PQfnumber(ptr noundef %43, ptr noundef @.str.43)
  store i32 %44, ptr %15, align 4
  call void @llvm.lifetime.start.p0(i64 4, ptr %16) #7
  %45 = load ptr, ptr %5, align 8
  %46 = call i32 @PQfnumber(ptr noundef %45, ptr noundef @.str.32)
  store i32 %46, ptr %16, align 4
  call void @llvm.lifetime.start.p0(i64 4, ptr %17) #7
  store i32 0, ptr %17, align 4
  call void @llvm.lifetime.start.p0(i64 8, ptr %18) #7
  store ptr null, ptr %18, align 8
  call void @llvm.lifetime.start.p0(i64 8, ptr %19) #7
  store ptr null, ptr %19, align 8
  call void @llvm.lifetime.start.p0(i64 8, ptr %20) #7
  store ptr null, ptr %20, align 8
  call void @llvm.lifetime.start.p0(i64 8, ptr %21) #7
  store ptr null, ptr %21, align 8
  call void @llvm.lifetime.start.p0(i64 8, ptr %22) #7
  store ptr null, ptr %22, align 8
  br label %47

47:                                               ; preds = %3
  br label %48

48:                                               ; preds = %47
  br label %49

49:                                               ; preds = %48
  call void @llvm.lifetime.start.p0(i64 4, ptr %23) #7
  store i32 0, ptr %23, align 4
  br label %50

50:                                               ; preds = %166, %49
  %51 = load i32, ptr %23, align 4
  %52 = load i32, ptr %7, align 4
  %53 = icmp slt i32 %51, %52
  br i1 %53, label %55, label %54

54:                                               ; preds = %50
  call void @llvm.lifetime.end.p0(i64 4, ptr %23) #7
  br label %169

55:                                               ; preds = %50
  call void @llvm.lifetime.start.p0(i64 8, ptr %24) #7
  %56 = load ptr, ptr %8, align 8
  %57 = load i32, ptr %17, align 4
  %58 = add i32 %57, 1
  store i32 %58, ptr %17, align 4
  %59 = sext i32 %57 to i64
  %60 = getelementptr inbounds %struct.RelInfo, ptr %56, i64 %59
  store ptr %60, ptr %24, align 8
  %61 = load ptr, ptr %5, align 8
  %62 = load i32, ptr %23, align 4
  %63 = load i32, ptr %9, align 4
  %64 = call ptr @PQgetvalue(ptr noundef %61, i32 noundef %62, i32 noundef %63)
  %65 = call i64 @strtoul(ptr noundef %64, ptr noundef null, i32 noundef 10) #7
  %66 = trunc i64 %65 to i32
  %67 = load ptr, ptr %24, align 8
  %68 = getelementptr inbounds nuw %struct.RelInfo, ptr %67, i32 0, i32 2
  store i32 %66, ptr %68, align 8
  %69 = load ptr, ptr %5, align 8
  %70 = load i32, ptr %23, align 4
  %71 = load i32, ptr %10, align 4
  %72 = call ptr @PQgetvalue(ptr noundef %69, i32 noundef %70, i32 noundef %71)
  %73 = call i64 @strtoul(ptr noundef %72, ptr noundef null, i32 noundef 10) #7
  %74 = trunc i64 %73 to i32
  %75 = load ptr, ptr %24, align 8
  %76 = getelementptr inbounds nuw %struct.RelInfo, ptr %75, i32 0, i32 4
  store i32 %74, ptr %76, align 8
  %77 = load ptr, ptr %5, align 8
  %78 = load i32, ptr %23, align 4
  %79 = load i32, ptr %11, align 4
  %80 = call ptr @PQgetvalue(ptr noundef %77, i32 noundef %78, i32 noundef %79)
  %81 = call i64 @strtoul(ptr noundef %80, ptr noundef null, i32 noundef 10) #7
  %82 = trunc i64 %81 to i32
  %83 = load ptr, ptr %24, align 8
  %84 = getelementptr inbounds nuw %struct.RelInfo, ptr %83, i32 0, i32 5
  store i32 %82, ptr %84, align 4
  %85 = load ptr, ptr %5, align 8
  %86 = load i32, ptr %23, align 4
  %87 = load i32, ptr %12, align 4
  %88 = call ptr @PQgetvalue(ptr noundef %85, i32 noundef %86, i32 noundef %87)
  store ptr %88, ptr %18, align 8
  %89 = load ptr, ptr %24, align 8
  %90 = getelementptr inbounds nuw %struct.RelInfo, ptr %89, i32 0, i32 7
  store i8 0, ptr %90, align 8
  %91 = load ptr, ptr %21, align 8
  %92 = icmp ne ptr %91, null
  br i1 %92, label %93, label %102

93:                                               ; preds = %55
  %94 = load ptr, ptr %18, align 8
  %95 = load ptr, ptr %21, align 8
  %96 = call i32 @strcmp(ptr noundef %94, ptr noundef %95) #8
  %97 = icmp eq i32 %96, 0
  br i1 %97, label %98, label %102

98:                                               ; preds = %93
  %99 = load ptr, ptr %21, align 8
  %100 = load ptr, ptr %24, align 8
  %101 = getelementptr inbounds nuw %struct.RelInfo, ptr %100, i32 0, i32 0
  store ptr %99, ptr %101, align 8
  br label %109

102:                                              ; preds = %93, %55
  %103 = load ptr, ptr %18, align 8
  %104 = call ptr @pg_strdup(ptr noundef %103)
  %105 = load ptr, ptr %24, align 8
  %106 = getelementptr inbounds nuw %struct.RelInfo, ptr %105, i32 0, i32 0
  store ptr %104, ptr %106, align 8
  store ptr %104, ptr %21, align 8
  %107 = load ptr, ptr %24, align 8
  %108 = getelementptr inbounds nuw %struct.RelInfo, ptr %107, i32 0, i32 7
  store i8 1, ptr %108, align 8
  br label %109

109:                                              ; preds = %102, %98
  %110 = load ptr, ptr %5, align 8
  %111 = load i32, ptr %23, align 4
  %112 = load i32, ptr %13, align 4
  %113 = call ptr @PQgetvalue(ptr noundef %110, i32 noundef %111, i32 noundef %112)
  store ptr %113, ptr %19, align 8
  %114 = load ptr, ptr %19, align 8
  %115 = call ptr @pg_strdup(ptr noundef %114)
  %116 = load ptr, ptr %24, align 8
  %117 = getelementptr inbounds nuw %struct.RelInfo, ptr %116, i32 0, i32 1
  store ptr %115, ptr %117, align 8
  %118 = load ptr, ptr %5, align 8
  %119 = load i32, ptr %23, align 4
  %120 = load i32, ptr %14, align 4
  %121 = call ptr @PQgetvalue(ptr noundef %118, i32 noundef %119, i32 noundef %120)
  %122 = call i64 @strtoul(ptr noundef %121, ptr noundef null, i32 noundef 10) #7
  %123 = trunc i64 %122 to i32
  %124 = load ptr, ptr %24, align 8
  %125 = getelementptr inbounds nuw %struct.RelInfo, ptr %124, i32 0, i32 3
  store i32 %123, ptr %125, align 4
  %126 = load ptr, ptr %24, align 8
  %127 = getelementptr inbounds nuw %struct.RelInfo, ptr %126, i32 0, i32 8
  store i8 0, ptr %127, align 1
  %128 = load ptr, ptr %5, align 8
  %129 = load i32, ptr %23, align 4
  %130 = load i32, ptr %15, align 4
  %131 = call ptr @PQgetvalue(ptr noundef %128, i32 noundef %129, i32 noundef %130)
  %132 = call i64 @strtoul(ptr noundef %131, ptr noundef null, i32 noundef 10) #7
  %133 = trunc i64 %132 to i32
  %134 = icmp ne i32 %133, 0
  br i1 %134, label %135, label %159

135:                                              ; preds = %109
  %136 = load ptr, ptr %5, align 8
  %137 = load i32, ptr %23, align 4
  %138 = load i32, ptr %16, align 4
  %139 = call ptr @PQgetvalue(ptr noundef %136, i32 noundef %137, i32 noundef %138)
  store ptr %139, ptr %20, align 8
  %140 = load ptr, ptr %22, align 8
  %141 = icmp ne ptr %140, null
  br i1 %141, label %142, label %151

142:                                              ; preds = %135
  %143 = load ptr, ptr %20, align 8
  %144 = load ptr, ptr %22, align 8
  %145 = call i32 @strcmp(ptr noundef %143, ptr noundef %144) #8
  %146 = icmp eq i32 %145, 0
  br i1 %146, label %147, label %151

147:                                              ; preds = %142
  %148 = load ptr, ptr %22, align 8
  %149 = load ptr, ptr %24, align 8
  %150 = getelementptr inbounds nuw %struct.RelInfo, ptr %149, i32 0, i32 6
  store ptr %148, ptr %150, align 8
  br label %158

151:                                              ; preds = %142, %135
  %152 = load ptr, ptr %20, align 8
  %153 = call ptr @pg_strdup(ptr noundef %152)
  %154 = load ptr, ptr %24, align 8
  %155 = getelementptr inbounds nuw %struct.RelInfo, ptr %154, i32 0, i32 6
  store ptr %153, ptr %155, align 8
  store ptr %153, ptr %22, align 8
  %156 = load ptr, ptr %24, align 8
  %157 = getelementptr inbounds nuw %struct.RelInfo, ptr %156, i32 0, i32 8
  store i8 1, ptr %157, align 1
  br label %158

158:                                              ; preds = %151, %147
  br label %165

159:                                              ; preds = %109
  %160 = load ptr, ptr %4, align 8
  %161 = getelementptr inbounds nuw %struct.DbInfo, ptr %160, i32 0, i32 2
  %162 = getelementptr inbounds [1024 x i8], ptr %161, i64 0, i64 0
  %163 = load ptr, ptr %24, align 8
  %164 = getelementptr inbounds nuw %struct.RelInfo, ptr %163, i32 0, i32 6
  store ptr %162, ptr %164, align 8
  br label %165

165:                                              ; preds = %159, %158
  call void @llvm.lifetime.end.p0(i64 8, ptr %24) #7
  br label %166

166:                                              ; preds = %165
  %167 = load i32, ptr %23, align 4
  %168 = add i32 %167, 1
  store i32 %168, ptr %23, align 4
  br label %50, !llvm.loop !12

169:                                              ; preds = %54
  %170 = load ptr, ptr %8, align 8
  %171 = load ptr, ptr %4, align 8
  %172 = getelementptr inbounds nuw %struct.DbInfo, ptr %171, i32 0, i32 3
  %173 = getelementptr inbounds nuw %struct.RelInfoArr, ptr %172, i32 0, i32 0
  store ptr %170, ptr %173, align 8
  %174 = load i32, ptr %17, align 4
  %175 = load ptr, ptr %4, align 8
  %176 = getelementptr inbounds nuw %struct.DbInfo, ptr %175, i32 0, i32 3
  %177 = getelementptr inbounds nuw %struct.RelInfoArr, ptr %176, i32 0, i32 1
  store i32 %174, ptr %177, align 8
  call void @llvm.lifetime.end.p0(i64 8, ptr %22) #7
  call void @llvm.lifetime.end.p0(i64 8, ptr %21) #7
  call void @llvm.lifetime.end.p0(i64 8, ptr %20) #7
  call void @llvm.lifetime.end.p0(i64 8, ptr %19) #7
  call void @llvm.lifetime.end.p0(i64 8, ptr %18) #7
  call void @llvm.lifetime.end.p0(i64 4, ptr %17) #7
  call void @llvm.lifetime.end.p0(i64 4, ptr %16) #7
  call void @llvm.lifetime.end.p0(i64 4, ptr %15) #7
  call void @llvm.lifetime.end.p0(i64 4, ptr %14) #7
  call void @llvm.lifetime.end.p0(i64 4, ptr %13) #7
  call void @llvm.lifetime.end.p0(i64 4, ptr %12) #7
  call void @llvm.lifetime.end.p0(i64 4, ptr %11) #7
  call void @llvm.lifetime.end.p0(i64 4, ptr %10) #7
  call void @llvm.lifetime.end.p0(i64 4, ptr %9) #7
  call void @llvm.lifetime.end.p0(i64 8, ptr %8) #7
  call void @llvm.lifetime.end.p0(i64 4, ptr %7) #7
  ret void
}