; Function Attrs: nounwind uwtable
define internal void @process_rel_infos(ptr noundef %0, ptr noundef %1, ptr readnone captures(none) %2) #0 {
  %4 = tail call i32 @PQntuples(ptr noundef %1) #7
  %5 = sext i32 %4 to i64
  %6 = mul nsw i64 %5, 48
  %7 = tail call ptr @pg_malloc(i64 noundef %6) #7
  %8 = tail call i32 @PQfnumber(ptr noundef %1, ptr noundef nonnull @.str.37) #7
  %9 = tail call i32 @PQfnumber(ptr noundef %1, ptr noundef nonnull @.str.38) #7
  %10 = tail call i32 @PQfnumber(ptr noundef %1, ptr noundef nonnull @.str.39) #7
  %11 = tail call i32 @PQfnumber(ptr noundef %1, ptr noundef nonnull @.str.40) #7
  %12 = tail call i32 @PQfnumber(ptr noundef %1, ptr noundef nonnull @.str.41) #7
  %13 = tail call i32 @PQfnumber(ptr noundef %1, ptr noundef nonnull @.str.42) #7
  %14 = tail call i32 @PQfnumber(ptr noundef %1, ptr noundef nonnull @.str.43) #7
  %15 = tail call i32 @PQfnumber(ptr noundef %1, ptr noundef nonnull @.str.32) #7
  %16 = icmp sgt i32 %4, 0
  br i1 %16, label %.lr.ph, label %._crit_edge

.lr.ph:                                           ; preds = %3
  %17 = getelementptr inbounds nuw i8, ptr %0, i64 16
  %wide.trip.count = zext nneg i32 %4 to i64
  br label %20

._crit_edge:                                      ; preds = %66, %3
  %.0.lcssa = phi i32 [ 0, %3 ], [ %4, %66 ]
  %18 = getelementptr inbounds nuw i8, ptr %0, i64 1040
  store ptr %7, ptr %18, align 8
  %19 = getelementptr inbounds nuw i8, ptr %0, i64 1048
  store i32 %.0.lcssa, ptr %19, align 8
  ret void

20:                                               ; preds = %.lr.ph, %66
  %indvars.iv = phi i64 [ 0, %.lr.ph ], [ %indvars.iv.next, %66 ]
  %.06975 = phi ptr [ null, %.lr.ph ], [ %.1, %66 ]
  %.07074 = phi ptr [ null, %.lr.ph ], [ %.171, %66 ]
  %indvars80 = trunc i64 %indvars.iv to i32
  %indvars.iv.next = add nuw nsw i64 %indvars.iv, 1
  %21 = getelementptr inbounds nuw %struct.RelInfo, ptr %7, i64 %indvars.iv
  %22 = tail call ptr @PQgetvalue(ptr noundef %1, i32 noundef %indvars80, i32 noundef %8) #7
  %23 = tail call i64 @strtoul(ptr noundef captures(none) %22, ptr noundef null, i32 noundef 10) #7
  %24 = trunc i64 %23 to i32
  %25 = getelementptr inbounds nuw i8, ptr %21, i64 16
  store i32 %24, ptr %25, align 8
  %26 = tail call ptr @PQgetvalue(ptr noundef %1, i32 noundef %indvars80, i32 noundef %9) #7
  %27 = tail call i64 @strtoul(ptr noundef captures(none) %26, ptr noundef null, i32 noundef 10) #7
  %28 = trunc i64 %27 to i32
  %29 = getelementptr inbounds nuw i8, ptr %21, i64 24
  store i32 %28, ptr %29, align 8
  %30 = tail call ptr @PQgetvalue(ptr noundef %1, i32 noundef %indvars80, i32 noundef %10) #7
  %31 = tail call i64 @strtoul(ptr noundef captures(none) %30, ptr noundef null, i32 noundef 10) #7
  %32 = trunc i64 %31 to i32
  %33 = getelementptr inbounds nuw i8, ptr %21, i64 28
  store i32 %32, ptr %33, align 4
  %34 = tail call ptr @PQgetvalue(ptr noundef %1, i32 noundef %indvars80, i32 noundef %11) #7
  %35 = getelementptr inbounds nuw i8, ptr %21, i64 40
  store i8 0, ptr %35, align 8
  %.not = icmp eq ptr %.07074, null
  br i1 %.not, label %40, label %36

36:                                               ; preds = %20
  %37 = tail call i32 @strcmp(ptr noundef nonnull dereferenceable(1) %34, ptr noundef nonnull dereferenceable(1) %.07074) #8
  %38 = icmp eq i32 %37, 0
  br i1 %38, label %39, label %40

39:                                               ; preds = %36
  store ptr %.07074, ptr %21, align 8
  br label %42

40:                                               ; preds = %36, %20
  %41 = tail call ptr @pg_strdup(ptr noundef %34) #7
  store ptr %41, ptr %21, align 8
  store i8 1, ptr %35, align 8
  br label %42

42:                                               ; preds = %40, %39
  %.171 = phi ptr [ %.07074, %39 ], [ %41, %40 ]
  %43 = tail call ptr @PQgetvalue(ptr noundef %1, i32 noundef %indvars80, i32 noundef %12) #7
  %44 = tail call ptr @pg_strdup(ptr noundef %43) #7
  %45 = getelementptr inbounds nuw i8, ptr %21, i64 8
  store ptr %44, ptr %45, align 8
  %46 = tail call ptr @PQgetvalue(ptr noundef %1, i32 noundef %indvars80, i32 noundef %13) #7
  %47 = tail call i64 @strtoul(ptr noundef captures(none) %46, ptr noundef null, i32 noundef 10) #7
  %48 = trunc i64 %47 to i32
  %49 = getelementptr inbounds nuw i8, ptr %21, i64 20
  store i32 %48, ptr %49, align 4
  %50 = getelementptr inbounds nuw i8, ptr %21, i64 41
  store i8 0, ptr %50, align 1
  %51 = tail call ptr @PQgetvalue(ptr noundef %1, i32 noundef %indvars80, i32 noundef %14) #7
  %52 = tail call i64 @strtoul(ptr noundef captures(none) %51, ptr noundef null, i32 noundef 10) #7
  %53 = and i64 %52, 4294967295
  %.not72 = icmp eq i64 %53, 0
  br i1 %.not72, label %64, label %54

54:                                               ; preds = %42
  %55 = tail call ptr @PQgetvalue(ptr noundef %1, i32 noundef %indvars80, i32 noundef %15) #7
  %.not73 = icmp eq ptr %.06975, null
  br i1 %.not73, label %61, label %56

56:                                               ; preds = %54
  %57 = tail call i32 @strcmp(ptr noundef nonnull dereferenceable(1) %55, ptr noundef nonnull dereferenceable(1) %.06975) #8
  %58 = icmp eq i32 %57, 0
  br i1 %58, label %59, label %61

59:                                               ; preds = %56
  %60 = getelementptr inbounds nuw i8, ptr %21, i64 32
  store ptr %.06975, ptr %60, align 8
  br label %66

61:                                               ; preds = %56, %54
  %62 = tail call ptr @pg_strdup(ptr noundef %55) #7
  %63 = getelementptr inbounds nuw i8, ptr %21, i64 32
  store ptr %62, ptr %63, align 8
  store i8 1, ptr %50, align 1
  br label %66

64:                                               ; preds = %42
  %65 = getelementptr inbounds nuw i8, ptr %21, i64 32
  store ptr %17, ptr %65, align 8
  br label %66

66:                                               ; preds = %59, %61, %64
  %.1 = phi ptr [ %.06975, %59 ], [ %62, %61 ], [ %.06975, %64 ]
  %exitcond.not = icmp eq i64 %indvars.iv.next, %wide.trip.count
  br i1 %exitcond.not, label %._crit_edge, label %20, !llvm.loop !16
}